target datalayout = "e-m:e-p270:32:32-p271:32:32-p272:64:64-i64:64-i128:128-f80:128-n8:16:32:64-S128"
target triple = "x86_64-pc-linux-gnu"

; Function Attrs: inlinehint mustprogress nounwind uwtable
define linkonce_odr noundef double @_ZSt3powIidEN9__gnu_cxx11__promote_2IT_T0_NS0_9__promoteIS2_Xsr3std12__is_integerIS2_EE7__valueEE6__typeENS4_IS3_Xsr3std12__is_integerIS3_EE7__valueEE6__typeEE6__typeES2_S3_(i32 noundef %0, double noundef %1) #10 comdat {
  %3 = alloca i32, align 4
  %4 = alloca double, align 8
  store i32 %0, ptr %3, align 4, !tbaa !38
  store double %1, ptr %4, align 8, !tbaa !8
  %5 = load i32, ptr %3, align 4, !tbaa !38
  %6 = sitofp i32 %5 to double
  %7 = load double, ptr %4, align 8, !tbaa !8
  %8 = call double @pow(double noundef %6, double noundef %7) #3, !tbaa !38
  ret double %8
}

; Function Attrs: inlinehint mustprogress uwtable
define internal noundef float @"_ZZN19OpenColorIO_v2_5dev11CANON_CLOG219GenerateOpsToLinearERNS_10OpRcPtrVecEENK3$_0clEd"(ptr noundef nonnull align 1 dereferenceable(1) %0, double noundef %1) #9 align 2 {
  %3 = alloca ptr, align 8
  %4 = alloca double, align 8
  %5 = alloca double, align 8
  store ptr %0, ptr %3, align 8, !tbaa !16
  store double %1, ptr %4, align 8, !tbaa !8
  call void @llvm.lifetime.start.p0(i64 8, ptr %5) #3
  store double 0.000000e+00, ptr %5, align 8, !tbaa !8
  %6 = load double, ptr %4, align 8, !tbaa !8
  %7 = fcmp olt double %6, 0x3FB7C5F17BD8BE73
  br i1 %7, label %8, label %16

8:                                                ; preds = %2
  %9 = load double, ptr %4, align 8, !tbaa !8
  %10 = fsub double 0x3FB7C5F17BD8BE73, %9
  %11 = fdiv double %10, 0x3FCEE4E8E2D7FC00
  %12 = call noundef double @_ZSt3powIidEN9__gnu_cxx11__promote_2IT_T0_NS0_9__promoteIS2_Xsr3std12__is_integerIS2_EE7__valueEE6__typeENS4_IS3_Xsr3std12__is_integerIS3_EE7__valueEE6__typeEE6__typeES2_S3_(i32 noundef 10, double noundef %11)
  %13 = fsub double %12, 1.000000e+00
  %14 = fneg double %13
  %15 = fdiv double %14, 0x4055C65C28F5C28F
  store double %15, ptr %5, align 8, !tbaa !8
  br label %23

16:                                               ; preds = %2
  %17 = load double, ptr %4, align 8, !tbaa !8
  %18 = fsub double %17, 0x3FB7C5F17BD8BE73
  %19 = fdiv double %18, 0x3FCEE4E8E2D7FC00
  %20 = call noundef double @_ZSt3powIidEN9__gnu_cxx11__promote_2IT_T0_NS0_9__promoteIS2_Xsr3std12__is_integerIS2_EE7__valueEE6__typeENS4_IS3_Xsr3std12__is_integerIS3_EE7__valueEE6__typeEE6__typeES2_S3_(i32 noundef 10, double noundef %19)
  %21 = fsub double %20, 1.000000e+00
  %22 = fdiv double %21, 0x4055C65C28F5C28F
  store double %22, ptr %5, align 8, !tbaa !8
  br label %23

23:                                               ; preds = %16, %8
  %24 = load double, ptr %5, align 8, !tbaa !8
  %25 = fmul double %24, 9.000000e-01
  %26 = fptrunc double %25 to float
  call void @llvm.lifetime.end.p0(i64 8, ptr %5) #3
  ret float %26
}

; Function Attrs: mustprogress nounwind uwtable
define linkonce_odr hidden noundef ptr @_ZNKSt9_Any_data9_M_accessEv(ptr noundef nonnull align 8 dereferenceable(16) %0) #4 comdat align 2 {
  %2 = alloca ptr, align 8
  store ptr %0, ptr %2, align 8, !tbaa !30
  %3 = load ptr, ptr %2, align 8
  %4 = getelementptr inbounds [16 x i8], ptr %3, i64 0, i64 0
  ret ptr %4
}

; Function Attrs: mustprogress uwtable
define internal noundef float @"_ZSt13__invoke_implIfRZN19OpenColorIO_v2_5dev11CANON_CLOG219GenerateOpsToLinearERNS0_10OpRcPtrVecEE3$_0JdEET_St14__invoke_otherOT0_DpOT1_"(ptr noundef nonnull align 1 dereferenceable(1) %0, ptr noundef nonnull align 8 dereferenceable(8) %1) #6 {
  %3 = alloca ptr, align 8
  %4 = alloca ptr, align 8
  store ptr %0, ptr %3, align 8, !tbaa !16
  store ptr %1, ptr %4, align 8, !tbaa !32
  %5 = load ptr, ptr %3, align 8, !tbaa !16
  %6 = load ptr, ptr %4, align 8, !tbaa !32
  %7 = load double, ptr %6, align 8, !tbaa !8
  %8 = call noundef float @"_ZZN19OpenColorIO_v2_5dev11CANON_CLOG219GenerateOpsToLinearERNS_10OpRcPtrVecEENK3$_0clEd"(ptr noundef nonnull align 1 dereferenceable(1) %5, double noundef %7)
  ret float %8
}

; Function Attrs: mustprogress nounwind uwtable
define internal noundef nonnull align 1 dereferenceable(1) ptr @"_ZNKSt9_Any_data9_M_accessIZN19OpenColorIO_v2_5dev11CANON_CLOG219GenerateOpsToLinearERNS1_10OpRcPtrVecEE3$_0EERKT_v"(ptr noundef nonnull align 8 dereferenceable(16) %0) #4 align 2 {
  %2 = alloca ptr, align 8
  store ptr %0, ptr %2, align 8, !tbaa !30
  %3 = load ptr, ptr %2, align 8
  %4 = call noundef ptr @_ZNKSt9_Any_data9_M_accessEv(ptr noundef nonnull align 8 dereferenceable(16) %3) #3
  ret ptr %4
}

; Function Attrs: mustprogress uwtable
define internal noundef float @"_ZSt10__invoke_rIfRZN19OpenColorIO_v2_5dev11CANON_CLOG219GenerateOpsToLinearERNS0_10OpRcPtrVecEE3$_0JdEENSt9enable_ifIXsr6__and_ISt6__not_ISt7is_voidIT_EESt14is_convertibleINSt15__invoke_resultIT0_JDpT1_EE4typeES9_EEE5valueES9_E4typeEOSE_DpOSF_"(ptr noundef nonnull align 1 dereferenceable(1) %0, ptr noundef nonnull align 8 dereferenceable(8) %1) #6 {
  %3 = alloca ptr, align 8
  %4 = alloca ptr, align 8
  store ptr %0, ptr %3, align 8, !tbaa !16
  store ptr %1, ptr %4, align 8, !tbaa !32
  %5 = load ptr, ptr %3, align 8, !tbaa !16
  %6 = load ptr, ptr %4, align 8, !tbaa !32
  %7 = call noundef float @"_ZSt13__invoke_implIfRZN19OpenColorIO_v2_5dev11CANON_CLOG219GenerateOpsToLinearERNS0_10OpRcPtrVecEE3$_0JdEET_St14__invoke_otherOT0_DpOT1_"(ptr noundef nonnull align 1 dereferenceable(1) %5, ptr noundef nonnull align 8 dereferenceable(8) %6)
  ret float %7
}

; Function Attrs: mustprogress nounwind uwtable
define internal noundef ptr @"_ZNSt14_Function_base13_Base_managerIZN19OpenColorIO_v2_5dev11CANON_CLOG219GenerateOpsToLinearERNS1_10OpRcPtrVecEE3$_0E14_M_get_pointerERKSt9_Any_data"(ptr noundef nonnull align 8 dereferenceable(16) %0) #4 align 2 {
  %2 = alloca ptr, align 8
  %3 = alloca ptr, align 8
  store ptr %0, ptr %2, align 8, !tbaa !30
  call void @llvm.lifetime.start.p0(i64 8, ptr %3) #3
  %4 = load ptr, ptr %2, align 8, !tbaa !30
  %5 = call noundef nonnull align 1 dereferenceable(1) ptr @"_ZNKSt9_Any_data9_M_accessIZN19OpenColorIO_v2_5dev11CANON_CLOG219GenerateOpsToLinearERNS1_10OpRcPtrVecEE3$_0EERKT_v"(ptr noundef nonnull align 8 dereferenceable(16) %4) #3
  store ptr %5, ptr %3, align 8, !tbaa !16
  %6 = load ptr, ptr %3, align 8, !tbaa !16
  call void @llvm.lifetime.end.p0(i64 8, ptr %3) #3
  ret ptr %6
}

; Function Attrs: mustprogress uwtable
define internal noundef float @"_ZNSt17_Function_handlerIFfdEZN19OpenColorIO_v2_5dev11CANON_CLOG219GenerateOpsToLinearERNS1_10OpRcPtrVecEE3$_0E9_M_invokeERKSt9_Any_dataOd"(ptr noundef nonnull align 8 dereferenceable(16) %0, ptr noundef nonnull align 8 dereferenceable(8) %1) #6 align 2 {
  %3 = alloca ptr, align 8
  %4 = alloca ptr, align 8
  store ptr %0, ptr %3, align 8, !tbaa !30
  store ptr %1, ptr %4, align 8, !tbaa !32
  %5 = load ptr, ptr %3, align 8, !tbaa !30
  %6 = call noundef ptr @"_ZNSt14_Function_base13_Base_managerIZN19OpenColorIO_v2_5dev11CANON_CLOG219GenerateOpsToLinearERNS1_10OpRcPtrVecEE3$_0E14_M_get_pointerERKSt9_Any_data"(ptr noundef nonnull align 8 dereferenceable(16) %5) #3
  %7 = load ptr, ptr %4, align 8, !tbaa !32
  %8 = call noundef float @"_ZSt10__invoke_rIfRZN19OpenColorIO_v2_5dev11CANON_CLOG219GenerateOpsToLinearERNS0_10OpRcPtrVecEE3$_0JdEENSt9enable_ifIXsr6__and_ISt6__not_ISt7is_voidIT_EESt14is_convertibleINSt15__invoke_resultIT0_JDpT1_EE4typeES9_EEE5valueES9_E4typeEOSE_DpOSF_"(ptr noundef nonnull align 1 dereferenceable(1) %6, ptr noundef nonnull align 8 dereferenceable(8) %7)
  ret float %8
}